; Function Attrs: nounwind sspstrong uwtable
define internal fastcc i64 @parse_float(double %.24.val) unnamed_addr #1 {
  %1 = bitcast double %.24.val to i64
  %cond.i = icmp eq i64 %1, 3458764513820540928
  br i1 %cond.i, label %13, label %2

2:                                                ; preds = %0
  %3 = lshr i64 %1, 60
  %4 = trunc nuw nsw i64 %3 to i32
  %5 = and i32 %4, 7
  %6 = add nsw i32 %5, -3
  %.not7.i = icmp ult i32 %6, 2
  br i1 %.not7.i, label %7, label %11

7:                                                ; preds = %2
  %8 = tail call noundef i64 @llvm.fshl.i64(i64 range(i64 3458764513820540929, 3458764513820540928) %1, i64 range(i64 3458764513820540929, 3458764513820540928) %1, i64 3)
  %9 = and i64 %8, -4
  %10 = or disjoint i64 %9, 2
  br label %rb_float_new_inline.exit

11:                                               ; preds = %2
  %12 = icmp eq i64 %1, 0
  br i1 %12, label %rb_float_new_inline.exit, label %13

13:                                               ; preds = %11, %0
  %14 = tail call i64 @rb_float_new_in_heap(double noundef %.24.val) #38
  br label %rb_float_new_inline.exit

rb_float_new_inline.exit:                         ; preds = %7, %11, %13
  %.0.i = phi i64 [ %14, %13 ], [ %10, %7 ], [ -9223372036854775806, %11 ]
  ret i64 %.0.i
}